target datalayout = "e-m:e-p270:32:32-p271:32:32-p272:64:64-i64:64-i128:128-f80:128-n8:16:32:64-S128"
target triple = "x86_64-pc-linux-gnu"

%struct.Wlc_Ntk_t_ = type { ptr, ptr, %struct.Vec_Int_t_, %struct.Vec_Int_t_, %struct.Vec_Int_t_, %struct.Vec_Int_t_, %struct.Vec_Int_t_, %struct.Vec_Int_t_, ptr, ptr, ptr, [60 x i32], [60 x i32], i32, i32, i32, i32, i32, ptr, i32, i32, ptr, ptr, ptr, ptr, ptr, %struct.Vec_Int_t_, %struct.Vec_Int_t_, i32, %struct.Vec_Int_t_, %struct.Vec_Int_t_, %struct.Vec_Int_t_, %struct.Vec_Int_t_, %struct.Vec_Int_t_, %struct.Vec_Int_t_ }
%struct.Vec_Int_t_ = type { i32, i32, ptr }
%struct.Wlc_Obj_t_ = type { i16, i32, i32, i32, %union.anon }
%union.anon = type { [1 x ptr] }

@.str.22 = private unnamed_addr constant [2 x i8] c"\0A\00", align 1
@.str.43 = private unnamed_addr constant [9 x i8] c"%-20s : \00", align 1
@.str.44 = private unnamed_addr constant [11 x i8] c"PI = %4d  \00", align 1
@.str.45 = private unnamed_addr constant [11 x i8] c"PO = %4d  \00", align 1
@.str.46 = private unnamed_addr constant [11 x i8] c"FF = %4d  \00", align 1
@.str.47 = private unnamed_addr constant [12 x i8] c"Obj = %6d  \00", align 1
@.str.48 = private unnamed_addr constant [14 x i8] c"Mem = %.3f MB\00", align 1
@.str.49 = private unnamed_addr constant [23 x i8] c"Node type statistics:\0A\00", align 1
@.str.50 = private unnamed_addr constant [29 x i8] c"%2d  :  %-8s  %6d  %7.2f %%\0A\00", align 1
@.str.51 = private unnamed_addr constant [19 x i8] c"%2d  :  %-8s  %6d\0A\00", align 1

; Function Attrs: nounwind uwtable
define internal i32 @Wlc_NtkObjNumMax(ptr noundef %0) #0 {
  %2 = alloca ptr, align 8
  store ptr %0, ptr %2, align 8
  %3 = load ptr, ptr %2, align 8
  %4 = getelementptr inbounds %struct.Wlc_Ntk_t_, ptr %3, i32 0, i32 19
  %5 = load i32, ptr %4, align 8
  ret i32 %5
}

; Function Attrs: nounwind uwtable
define internal ptr @Wlc_NtkObj(ptr noundef %0, i32 noundef %1) #0 {
  %3 = alloca ptr, align 8
  %4 = alloca i32, align 4
  store ptr %0, ptr %3, align 8
  store i32 %1, ptr %4, align 4
  %5 = load ptr, ptr %3, align 8
  %6 = getelementptr inbounds %struct.Wlc_Ntk_t_, ptr %5, i32 0, i32 18
  %7 = load ptr, ptr %6, align 8
  %8 = load i32, ptr %4, align 4
  %9 = sext i32 %8 to i64
  %10 = getelementptr inbounds %struct.Wlc_Obj_t_, ptr %7, i64 %9
  ret ptr %10
}

; Function Attrs: nounwind uwtable
define internal i32 @Vec_IntEntry(ptr noundef %0, i32 noundef %1) #0 {
  %3 = alloca ptr, align 8
  %4 = alloca i32, align 4
  store ptr %0, ptr %3, align 8
  store i32 %1, ptr %4, align 4
  %5 = load ptr, ptr %3, align 8
  %6 = getelementptr inbounds %struct.Vec_Int_t_, ptr %5, i32 0, i32 2
  %7 = load ptr, ptr %6, align 8
  %8 = load i32, ptr %4, align 4
  %9 = sext i32 %8 to i64
  %10 = getelementptr inbounds i32, ptr %7, i64 %9
  %11 = load i32, ptr %10, align 4
  ret i32 %11
}

; Function Attrs: nounwind uwtable
define internal i32 @Vec_IntSize(ptr noundef %0) #0 {
  %2 = alloca ptr, align 8
  store ptr %0, ptr %2, align 8
  %3 = load ptr, ptr %2, align 8
  %4 = getelementptr inbounds %struct.Vec_Int_t_, ptr %3, i32 0, i32 1
  %5 = load i32, ptr %4, align 4
  ret i32 %5
}

; Function Attrs: nounwind uwtable
define void @Wlc_NtkCleanMarks(ptr noundef %0) #0 {
  %2 = alloca ptr, align 8
  %3 = alloca ptr, align 8
  %4 = alloca i32, align 4
  store ptr %0, ptr %2, align 8
  store i32 1, ptr %4, align 4
  br label %5

5:                                                ; preds = %21, %1
  %6 = load i32, ptr %4, align 4
  %7 = load ptr, ptr %2, align 8
  %8 = call i32 @Wlc_NtkObjNumMax(ptr noundef %7)
  %9 = icmp slt i32 %6, %8
  br i1 %9, label %10, label %14

10:                                               ; preds = %5
  %11 = load ptr, ptr %2, align 8
  %12 = load i32, ptr %4, align 4
  %13 = call ptr @Wlc_NtkObj(ptr noundef %11, i32 noundef %12)
  store ptr %13, ptr %3, align 8
  br label %14

14:                                               ; preds = %10, %5
  %15 = phi i1 [ false, %5 ], [ true, %10 ]
  br i1 %15, label %16, label %24

16:                                               ; preds = %14
  %17 = load ptr, ptr %3, align 8
  %18 = load i16, ptr %17, align 8
  %19 = and i16 %18, -129
  %20 = or i16 %19, 0
  store i16 %20, ptr %17, align 8
  br label %21

21:                                               ; preds = %16
  %22 = load i32, ptr %4, align 4
  %23 = add nsw i32 %22, 1
  store i32 %23, ptr %4, align 4
  br label %5, !llvm.loop !29

24:                                               ; preds = %14
  ret void
}

; Function Attrs: nounwind uwtable
define internal ptr @Wlc_NtkPi(ptr noundef %0, i32 noundef %1) #0 {
  %3 = alloca ptr, align 8
  %4 = alloca i32, align 4
  store ptr %0, ptr %3, align 8
  store i32 %1, ptr %4, align 4
  %5 = load ptr, ptr %3, align 8
  %6 = load ptr, ptr %3, align 8
  %7 = getelementptr inbounds %struct.Wlc_Ntk_t_, ptr %6, i32 0, i32 2
  %8 = load i32, ptr %4, align 4
  %9 = call i32 @Vec_IntEntry(ptr noundef %7, i32 noundef %8)
  %10 = call ptr @Wlc_NtkObj(ptr noundef %5, i32 noundef %9)
  ret ptr %10
}

; Function Attrs: nounwind uwtable
define i32 @Wlc_NtkMemUsage(ptr noundef %0) #0 {
  %2 = alloca ptr, align 8
  %3 = alloca i32, align 4
  store ptr %0, ptr %2, align 8
  store i32 832, ptr %3, align 4
  %4 = load ptr, ptr %2, align 8
  %5 = getelementptr inbounds %struct.Wlc_Ntk_t_, ptr %4, i32 0, i32 2
  %6 = getelementptr inbounds %struct.Vec_Int_t_, ptr %5, i32 0, i32 0
  %7 = load i32, ptr %6, align 8
  %8 = mul nsw i32 4, %7
  %9 = load i32, ptr %3, align 4
  %10 = add nsw i32 %9, %8
  store i32 %10, ptr %3, align 4
  %11 = load ptr, ptr %2, align 8
  %12 = getelementptr inbounds %struct.Wlc_Ntk_t_, ptr %11, i32 0, i32 3
  %13 = getelementptr inbounds %struct.Vec_Int_t_, ptr %12, i32 0, i32 0
  %14 = load i32, ptr %13, align 8
  %15 = mul nsw i32 4, %14
  %16 = load i32, ptr %3, align 4
  %17 = add nsw i32 %16, %15
  store i32 %17, ptr %3, align 4
  %18 = load ptr, ptr %2, align 8
  %19 = getelementptr inbounds %struct.Wlc_Ntk_t_, ptr %18, i32 0, i32 4
  %20 = getelementptr inbounds %struct.Vec_Int_t_, ptr %19, i32 0, i32 0
  %21 = load i32, ptr %20, align 8
  %22 = mul nsw i32 4, %21
  %23 = load i32, ptr %3, align 4
  %24 = add nsw i32 %23, %22
  store i32 %24, ptr %3, align 4
  %25 = load ptr, ptr %2, align 8
  %26 = getelementptr inbounds %struct.Wlc_Ntk_t_, ptr %25, i32 0, i32 5
  %27 = getelementptr inbounds %struct.Vec_Int_t_, ptr %26, i32 0, i32 0
  %28 = load i32, ptr %27, align 8
  %29 = mul nsw i32 4, %28
  %30 = load i32, ptr %3, align 4
  %31 = add nsw i32 %30, %29
  store i32 %31, ptr %3, align 4
  %32 = load ptr, ptr %2, align 8
  %33 = getelementptr inbounds %struct.Wlc_Ntk_t_, ptr %32, i32 0, i32 6
  %34 = getelementptr inbounds %struct.Vec_Int_t_, ptr %33, i32 0, i32 0
  %35 = load i32, ptr %34, align 8
  %36 = mul nsw i32 4, %35
  %37 = load i32, ptr %3, align 4
  %38 = add nsw i32 %37, %36
  store i32 %38, ptr %3, align 4
  %39 = load ptr, ptr %2, align 8
  %40 = getelementptr inbounds %struct.Wlc_Ntk_t_, ptr %39, i32 0, i32 7
  %41 = getelementptr inbounds %struct.Vec_Int_t_, ptr %40, i32 0, i32 0
  %42 = load i32, ptr %41, align 8
  %43 = mul nsw i32 4, %42
  %44 = load i32, ptr %3, align 4
  %45 = add nsw i32 %44, %43
  store i32 %45, ptr %3, align 4
  %46 = load ptr, ptr %2, align 8
  %47 = getelementptr inbounds %struct.Wlc_Ntk_t_, ptr %46, i32 0, i32 20
  %48 = load i32, ptr %47, align 4
  %49 = sext i32 %48 to i64
  %50 = mul i64 24, %49
  %51 = load i32, ptr %3, align 4
  %52 = sext i32 %51 to i64
  %53 = add i64 %52, %50
  %54 = trunc i64 %53 to i32
  store i32 %54, ptr %3, align 4
  %55 = load ptr, ptr %2, align 8
  %56 = getelementptr inbounds %struct.Wlc_Ntk_t_, ptr %55, i32 0, i32 25
  %57 = load ptr, ptr %56, align 8
  %58 = call i32 @Abc_NamMemUsed(ptr noundef %57)
  %59 = load i32, ptr %3, align 4
  %60 = add nsw i32 %59, %58
  store i32 %60, ptr %3, align 4
  %61 = load ptr, ptr %2, align 8
  %62 = getelementptr inbounds %struct.Wlc_Ntk_t_, ptr %61, i32 0, i32 21
  %63 = load ptr, ptr %62, align 8
  %64 = call i32 @Mem_FlexReadMemUsage(ptr noundef %63)
  %65 = load i32, ptr %3, align 4
  %66 = add nsw i32 %65, %64
  store i32 %66, ptr %3, align 4
  %67 = load i32, ptr %3, align 4
  ret i32 %67
}

; Function Attrs: nounwind uwtable
define internal i32 @Wlc_NtkPiNum(ptr noundef %0) #0 {
  %2 = alloca ptr, align 8
  store ptr %0, ptr %2, align 8
  %3 = load ptr, ptr %2, align 8
  %4 = getelementptr inbounds %struct.Wlc_Ntk_t_, ptr %3, i32 0, i32 2
  %5 = call i32 @Vec_IntSize(ptr noundef %4)
  ret i32 %5
}

; Function Attrs: nounwind uwtable
define internal i32 @Wlc_NtkObjNum(ptr noundef %0) #0 {
  %2 = alloca ptr, align 8
  store ptr %0, ptr %2, align 8
  %3 = load ptr, ptr %2, align 8
  %4 = getelementptr inbounds %struct.Wlc_Ntk_t_, ptr %3, i32 0, i32 19
  %5 = load i32, ptr %4, align 8
  %6 = sub nsw i32 %5, 1
  ret i32 %6
}

; Function Attrs: nounwind uwtable
define internal i32 @Wlc_NtkFfNum(ptr noundef %0) #0 {
  %2 = alloca ptr, align 8
  store ptr %0, ptr %2, align 8
  %3 = load ptr, ptr %2, align 8
  %4 = getelementptr inbounds %struct.Wlc_Ntk_t_, ptr %3, i32 0, i32 4
  %5 = call i32 @Vec_IntSize(ptr noundef %4)
  %6 = load ptr, ptr %2, align 8
  %7 = getelementptr inbounds %struct.Wlc_Ntk_t_, ptr %6, i32 0, i32 2
  %8 = call i32 @Vec_IntSize(ptr noundef %7)
  %9 = sub nsw i32 %5, %8
  ret i32 %9
}

; Function Attrs: nounwind uwtable
define internal i32 @Wlc_NtkPoNum(ptr noundef %0) #0 {
  %2 = alloca ptr, align 8
  store ptr %0, ptr %2, align 8
  %3 = load ptr, ptr %2, align 8
  %4 = getelementptr inbounds %struct.Wlc_Ntk_t_, ptr %3, i32 0, i32 3
  %5 = call i32 @Vec_IntSize(ptr noundef %4)
  ret i32 %5
}

; Function Attrs: nounwind uwtable
define i32 @Wlc_NtkCountRealPis(ptr noundef %0) #0 {
  %2 = alloca ptr, align 8
  %3 = alloca ptr, align 8
  %4 = alloca i32, align 4
  %5 = alloca i32, align 4
  store ptr %0, ptr %2, align 8
  store i32 0, ptr %5, align 4
  %6 = load ptr, ptr %2, align 8
  call void @Wlc_NtkMarkCone(ptr noundef %6, i32 noundef -1, i32 noundef -1, i32 noundef 1, i32 noundef 0)
  store i32 0, ptr %4, align 4
  br label %7

7:                                                ; preds = %26, %1
  %8 = load i32, ptr %4, align 4
  %9 = load ptr, ptr %2, align 8
  %10 = call i32 @Wlc_NtkPiNum(ptr noundef %9)
  %11 = icmp slt i32 %8, %10
  br i1 %11, label %12, label %16

12:                                               ; preds = %7
  %13 = load ptr, ptr %2, align 8
  %14 = load i32, ptr %4, align 4
  %15 = call ptr @Wlc_NtkPi(ptr noundef %13, i32 noundef %14)
  store ptr %15, ptr %3, align 8
  br label %16

16:                                               ; preds = %12, %7
  %17 = phi i1 [ false, %7 ], [ true, %12 ]
  br i1 %17, label %18, label %29

18:                                               ; preds = %16
  %19 = load ptr, ptr %3, align 8
  %20 = load i16, ptr %19, align 8
  %21 = lshr i16 %20, 7
  %22 = and i16 %21, 1
  %23 = zext i16 %22 to i32
  %24 = load i32, ptr %5, align 4
  %25 = add nsw i32 %24, %23
  store i32 %25, ptr %5, align 4
  br label %26

26:                                               ; preds = %18
  %27 = load i32, ptr %4, align 4
  %28 = add nsw i32 %27, 1
  store i32 %28, ptr %4, align 4
  br label %7, !llvm.loop !30

29:                                               ; preds = %16
  %30 = load ptr, ptr %2, align 8
  call void @Wlc_NtkCleanMarks(ptr noundef %30)
  %31 = load i32, ptr %5, align 4
  ret i32 %31
}

; Function Attrs: nounwind uwtable
define void @Wlc_NtkPrintStats(ptr noundef %0, i32 noundef %1, i32 noundef %2, i32 noundef %3) #0 {
  %5 = alloca ptr, align 8
  %6 = alloca i32, align 4
  %7 = alloca i32, align 4
  %8 = alloca i32, align 4
  %9 = alloca i32, align 4
  store ptr %0, ptr %5, align 8
  store i32 %1, ptr %6, align 4
  store i32 %2, ptr %7, align 4
  store i32 %3, ptr %8, align 4
  %10 = load ptr, ptr %5, align 8
  %11 = getelementptr inbounds %struct.Wlc_Ntk_t_, ptr %10, i32 0, i32 0
  %12 = load ptr, ptr %11, align 8
  %13 = call i32 (ptr, ...) @printf(ptr noundef @.str.43, ptr noundef %12)
  %14 = load ptr, ptr %5, align 8
  %15 = call i32 @Wlc_NtkCountRealPis(ptr noundef %14)
  %16 = call i32 (ptr, ...) @printf(ptr noundef @.str.44, i32 noundef %15)
  %17 = load ptr, ptr %5, align 8
  %18 = call i32 @Wlc_NtkPoNum(ptr noundef %17)
  %19 = call i32 (ptr, ...) @printf(ptr noundef @.str.45, i32 noundef %18)
  %20 = load ptr, ptr %5, align 8
  %21 = call i32 @Wlc_NtkFfNum(ptr noundef %20)
  %22 = call i32 (ptr, ...) @printf(ptr noundef @.str.46, i32 noundef %21)
  %23 = load ptr, ptr %5, align 8
  %24 = call i32 @Wlc_NtkObjNum(ptr noundef %23)
  %25 = load ptr, ptr %5, align 8
  %26 = call i32 @Wlc_NtkPiNum(ptr noundef %25)
  %27 = sub nsw i32 %24, %26
  %28 = load ptr, ptr %5, align 8
  %29 = call i32 @Wlc_NtkPoNum(ptr noundef %28)
  %30 = sub nsw i32 %27, %29
  %31 = load ptr, ptr %5, align 8
  %32 = call i32 @Wlc_NtkFfNum(ptr noundef %31)
  %33 = sub nsw i32 %30, %32
  %34 = call i32 (ptr, ...) @printf(ptr noundef @.str.47, i32 noundef %33)
  %35 = load ptr, ptr %5, align 8
  %36 = call i32 @Wlc_NtkMemUsage(ptr noundef %35)
  %37 = sitofp i32 %36 to double
  %38 = fmul double 1.000000e+00, %37
  %39 = fdiv double %38, 0x4130000000000000
  %40 = call i32 (ptr, ...) @printf(ptr noundef @.str.48, double noundef %39)
  %41 = call i32 (ptr, ...) @printf(ptr noundef @.str.22)
  %42 = load i32, ptr %6, align 4
  %43 = icmp ne i32 %42, 0
  br i1 %43, label %44, label %48

44:                                               ; preds = %4
  %45 = load ptr, ptr %5, align 8
  %46 = load i32, ptr %7, align 4
  %47 = load i32, ptr %8, align 4
  call void @Wlc_NtkPrintDistrib(ptr noundef %45, i32 noundef %46, i32 noundef %47)
  br label %124

48:                                               ; preds = %4
  %49 = load i32, ptr %8, align 4
  %50 = icmp ne i32 %49, 0
  br i1 %50, label %52, label %51

51:                                               ; preds = %48
  br label %124

52:                                               ; preds = %48
  %53 = call i32 (ptr, ...) @printf(ptr noundef @.str.49)
  store i32 1, ptr %9, align 4
  br label %54

54:                                               ; preds = %121, %52
  %55 = load i32, ptr %9, align 4
  %56 = icmp slt i32 %55, 60
  br i1 %56, label %57, label %124

57:                                               ; preds = %54
  %58 = load ptr, ptr %5, align 8
  %59 = getelementptr inbounds %struct.Wlc_Ntk_t_, ptr %58, i32 0, i32 11
  %60 = load i32, ptr %9, align 4
  %61 = sext i32 %60 to i64
  %62 = getelementptr inbounds [60 x i32], ptr %59, i64 0, i64 %61
  %63 = load i32, ptr %62, align 4
  %64 = icmp ne i32 %63, 0
  br i1 %64, label %66, label %65

65:                                               ; preds = %57
  br label %121

66:                                               ; preds = %57
  %67 = load ptr, ptr %5, align 8
  %68 = getelementptr inbounds %struct.Wlc_Ntk_t_, ptr %67, i32 0, i32 12
  %69 = getelementptr inbounds [60 x i32], ptr %68, i64 0, i64 0
  %70 = load i32, ptr %69, align 8
  %71 = icmp ne i32 %70, 0
  br i1 %71, label %72, label %107

72:                                               ; preds = %66
  %73 = load ptr, ptr %5, align 8
  %74 = getelementptr inbounds %struct.Wlc_Ntk_t_, ptr %73, i32 0, i32 12
  %75 = load i32, ptr %9, align 4
  %76 = sext i32 %75 to i64
  %77 = getelementptr inbounds [60 x i32], ptr %74, i64 0, i64 %76
  %78 = load i32, ptr %77, align 4
  %79 = icmp ne i32 %78, 0
  br i1 %79, label %80, label %107

80:                                               ; preds = %72
  %81 = load i32, ptr %9, align 4
  %82 = load i32, ptr %9, align 4
  %83 = sext i32 %82 to i64
  %84 = getelementptr inbounds [61 x ptr], ptr @Wlc_Names, i64 0, i64 %83
  %85 = load ptr, ptr %84, align 8
  %86 = load ptr, ptr %5, align 8
  %87 = getelementptr inbounds %struct.Wlc_Ntk_t_, ptr %86, i32 0, i32 11
  %88 = load i32, ptr %9, align 4
  %89 = sext i32 %88 to i64
  %90 = getelementptr inbounds [60 x i32], ptr %87, i64 0, i64 %89
  %91 = load i32, ptr %90, align 4
  %92 = load ptr, ptr %5, align 8
  %93 = getelementptr inbounds %struct.Wlc_Ntk_t_, ptr %92, i32 0, i32 12
  %94 = load i32, ptr %9, align 4
  %95 = sext i32 %94 to i64
  %96 = getelementptr inbounds [60 x i32], ptr %93, i64 0, i64 %95
  %97 = load i32, ptr %96, align 4
  %98 = sitofp i32 %97 to double
  %99 = fmul double 1.000000e+02, %98
  %100 = load ptr, ptr %5, align 8
  %101 = getelementptr inbounds %struct.Wlc_Ntk_t_, ptr %100, i32 0, i32 12
  %102 = getelementptr inbounds [60 x i32], ptr %101, i64 0, i64 0
  %103 = load i32, ptr %102, align 8
  %104 = sitofp i32 %103 to double
  %105 = fdiv double %99, %104
  %106 = call i32 (ptr, ...) @printf(ptr noundef @.str.50, i32 noundef %81, ptr noundef %85, i32 noundef %91, double noundef %105)
  br label %120

107:                                              ; preds = %72, %66
  %108 = load i32, ptr %9, align 4
  %109 = load i32, ptr %9, align 4
  %110 = sext i32 %109 to i64
  %111 = getelementptr inbounds [61 x ptr], ptr @Wlc_Names, i64 0, i64 %110
  %112 = load ptr, ptr %111, align 8
  %113 = load ptr, ptr %5, align 8
  %114 = getelementptr inbounds %struct.Wlc_Ntk_t_, ptr %113, i32 0, i32 11
  %115 = load i32, ptr %9, align 4
  %116 = sext i32 %115 to i64
  %117 = getelementptr inbounds [60 x i32], ptr %114, i64 0, i64 %116
  %118 = load i32, ptr %117, align 4
  %119 = call i32 (ptr, ...) @printf(ptr noundef @.str.51, i32 noundef %108, ptr noundef %112, i32 noundef %118)
  br label %120

120:                                              ; preds = %107, %80
  br label %121

121:                                              ; preds = %120, %65
  %122 = load i32, ptr %9, align 4
  %123 = add nsw i32 %122, 1
  store i32 %123, ptr %9, align 4
  br label %54, !llvm.loop !46

124:                                              ; preds = %54, %51, %44
  ret void
}