; Function Attrs: nounwind uwtable
define void @Wlc_NtkPrintStats(ptr noundef readonly captures(none) %0, i32 noundef %1, i32 noundef %2, i32 noundef %3) local_unnamed_addr #3 {
  %5 = load ptr, ptr %0, align 8
  %6 = tail call i32 (ptr, ...) @printf(ptr noundef nonnull dereferenceable(1) @.str.43, ptr noundef %5)
  tail call void @Wlc_NtkMarkCone(ptr noundef nonnull readonly %0, i32 noundef -1, i32 noundef -1, i32 noundef 1, i32 noundef 0)
  %7 = getelementptr i8, ptr %0, i64 20
  %.val.i = load i32, ptr %7, align 4
  %8 = icmp sgt i32 %.val.i, 0
  br i1 %8, label %.lr.ph.i, label %.critedge.i

.lr.ph.i:                                         ; preds = %4
  %9 = getelementptr i8, ptr %0, i64 24
  %.val10.i = load ptr, ptr %9, align 8
  %10 = getelementptr i8, ptr %0, i64 640
  %.val11.i = load ptr, ptr %10, align 8
  %wide.trip.count.i = zext nneg i32 %.val.i to i64
  br label %11

11:                                               ; preds = %11, %.lr.ph.i
  %indvars.iv.i = phi i64 [ 0, %.lr.ph.i ], [ %indvars.iv.next.i, %11 ]
  %.013.i = phi i32 [ 0, %.lr.ph.i ], [ %20, %11 ]
  %12 = getelementptr inbounds nuw i32, ptr %.val10.i, i64 %indvars.iv.i
  %13 = load i32, ptr %12, align 4
  %14 = sext i32 %13 to i64
  %15 = getelementptr inbounds %struct.Wlc_Obj_t_, ptr %.val11.i, i64 %14
  %16 = load i16, ptr %15, align 8
  %17 = lshr i16 %16, 7
  %18 = and i16 %17, 1
  %19 = zext nneg i16 %18 to i32
  %20 = add nuw nsw i32 %.013.i, %19
  %indvars.iv.next.i = add nuw nsw i64 %indvars.iv.i, 1
  %exitcond.not.i = icmp eq i64 %indvars.iv.next.i, %wide.trip.count.i
  br i1 %exitcond.not.i, label %.critedge.i, label %11, !llvm.loop !30

.critedge.i:                                      ; preds = %11, %4
  %.0.lcssa.i = phi i32 [ 0, %4 ], [ %20, %11 ]
  %21 = getelementptr i8, ptr %0, i64 648
  %.val56.i.i = load i32, ptr %21, align 8
  %22 = icmp sgt i32 %.val56.i.i, 1
  br i1 %22, label %.lr.ph.i.i, label %Wlc_NtkCountRealPis.exit

.lr.ph.i.i:                                       ; preds = %.critedge.i
  %23 = getelementptr i8, ptr %0, i64 640
  br label %24

24:                                               ; preds = %24, %.lr.ph.i.i
  %indvars.iv.i.i = phi i64 [ 1, %.lr.ph.i.i ], [ %indvars.iv.next.i.i, %24 ]
  %.val.i.i = load ptr, ptr %23, align 8
  %25 = getelementptr inbounds nuw %struct.Wlc_Obj_t_, ptr %.val.i.i, i64 %indvars.iv.i.i
  %26 = load i16, ptr %25, align 8
  %27 = and i16 %26, -129
  store i16 %27, ptr %25, align 8
  %indvars.iv.next.i.i = add nuw nsw i64 %indvars.iv.i.i, 1
  %.val5.i.i = load i32, ptr %21, align 8
  %28 = sext i32 %.val5.i.i to i64
  %29 = icmp slt i64 %indvars.iv.next.i.i, %28
  br i1 %29, label %24, label %Wlc_NtkCountRealPis.exit, !llvm.loop !26

Wlc_NtkCountRealPis.exit:                         ; preds = %24, %.critedge.i
  %30 = tail call i32 (ptr, ...) @printf(ptr noundef nonnull dereferenceable(1) @.str.44, i32 noundef %.0.lcssa.i)
  %31 = getelementptr i8, ptr %0, i64 36
  %.val39 = load i32, ptr %31, align 4
  %32 = tail call i32 (ptr, ...) @printf(ptr noundef nonnull dereferenceable(1) @.str.45, i32 noundef %.val39)
  %.val40 = load i32, ptr %7, align 4
  %33 = getelementptr i8, ptr %0, i64 52
  %.val41 = load i32, ptr %33, align 4
  %34 = sub nsw i32 %.val41, %.val40
  %35 = tail call i32 (ptr, ...) @printf(ptr noundef nonnull dereferenceable(1) @.str.46, i32 noundef %34)
  %.val44 = load i32, ptr %21, align 8
  %.val38 = load i32, ptr %31, align 4
  %.val43 = load i32, ptr %33, align 4
  %36 = add i32 %.val43, %.val38
  %37 = xor i32 %36, -1
  %38 = add i32 %.val44, %37
  %39 = tail call i32 (ptr, ...) @printf(ptr noundef nonnull dereferenceable(1) @.str.47, i32 noundef %38)
  %40 = getelementptr inbounds nuw i8, ptr %0, i64 16
  %41 = load i32, ptr %40, align 8
  %42 = getelementptr inbounds nuw i8, ptr %0, i64 32
  %43 = load i32, ptr %42, align 8
  %44 = add i32 %43, %41
  %45 = getelementptr inbounds nuw i8, ptr %0, i64 48
  %46 = load i32, ptr %45, align 8
  %47 = add i32 %44, %46
  %48 = getelementptr inbounds nuw i8, ptr %0, i64 64
  %49 = load i32, ptr %48, align 8
  %50 = add i32 %47, %49
  %51 = getelementptr inbounds nuw i8, ptr %0, i64 80
  %52 = load i32, ptr %51, align 8
  %53 = add i32 %50, %52
  %54 = getelementptr inbounds nuw i8, ptr %0, i64 96
  %55 = load i32, ptr %54, align 8
  %56 = add i32 %53, %55
  %57 = shl i32 %56, 2
  %58 = add i32 %57, 832
  %59 = getelementptr inbounds nuw i8, ptr %0, i64 652
  %60 = load i32, ptr %59, align 4
  %61 = mul i32 %60, 24
  %62 = add i32 %58, %61
  %63 = getelementptr inbounds nuw i8, ptr %0, i64 688
  %64 = load ptr, ptr %63, align 8
  %65 = tail call i32 @Abc_NamMemUsed(ptr noundef %64) #25
  %66 = add nsw i32 %62, %65
  %67 = getelementptr inbounds nuw i8, ptr %0, i64 656
  %68 = load ptr, ptr %67, align 8
  %69 = tail call i32 @Mem_FlexReadMemUsage(ptr noundef %68) #25
  %70 = add nsw i32 %66, %69
  %71 = sitofp i32 %70 to double
  %72 = fmul double %71, 0x3EB0000000000000
  %73 = tail call i32 (ptr, ...) @printf(ptr noundef nonnull dereferenceable(1) @.str.48, double noundef %72)
  %putchar = tail call i32 @putchar(i32 10)
  %.not = icmp eq i32 %1, 0
  br i1 %.not, label %75, label %74

74:                                               ; preds = %Wlc_NtkCountRealPis.exit
  tail call void @Wlc_NtkPrintDistrib(ptr noundef nonnull %0, i32 noundef %2, i32 poison)
  br label %.loopexit

75:                                               ; preds = %Wlc_NtkCountRealPis.exit
  %.not34 = icmp eq i32 %3, 0
  br i1 %.not34, label %.loopexit, label %76

76:                                               ; preds = %75
  %puts = tail call i32 @puts(ptr nonnull dereferenceable(1) @str)
  %77 = getelementptr inbounds nuw i8, ptr %0, i64 136
  %78 = getelementptr inbounds nuw i8, ptr %0, i64 376
  br label %79

79:                                               ; preds = %76, %101
  %indvars.iv = phi i64 [ 1, %76 ], [ %indvars.iv.next, %101 ]
  %80 = getelementptr inbounds nuw [60 x i32], ptr %77, i64 0, i64 %indvars.iv
  %81 = load i32, ptr %80, align 4
  %.not35 = icmp eq i32 %81, 0
  br i1 %.not35, label %101, label %82

82:                                               ; preds = %79
  %83 = load i32, ptr %78, align 8
  %.not36 = icmp eq i32 %83, 0
  br i1 %.not36, label %96, label %84

84:                                               ; preds = %82
  %85 = getelementptr inbounds nuw [60 x i32], ptr %78, i64 0, i64 %indvars.iv
  %86 = load i32, ptr %85, align 4
  %.not37 = icmp eq i32 %86, 0
  br i1 %.not37, label %96, label %87

87:                                               ; preds = %84
  %88 = getelementptr inbounds nuw [61 x ptr], ptr @Wlc_Names, i64 0, i64 %indvars.iv
  %89 = load ptr, ptr %88, align 8
  %90 = sitofp i32 %86 to double
  %91 = fmul double %90, 1.000000e+02
  %92 = sitofp i32 %83 to double
  %93 = fdiv double %91, %92
  %94 = trunc nuw nsw i64 %indvars.iv to i32
  %95 = tail call i32 (ptr, ...) @printf(ptr noundef nonnull dereferenceable(1) @.str.50, i32 noundef %94, ptr noundef %89, i32 noundef %81, double noundef %93)
  br label %101

96:                                               ; preds = %84, %82
  %97 = getelementptr inbounds nuw [61 x ptr], ptr @Wlc_Names, i64 0, i64 %indvars.iv
  %98 = load ptr, ptr %97, align 8
  %99 = trunc nuw nsw i64 %indvars.iv to i32
  %100 = tail call i32 (ptr, ...) @printf(ptr noundef nonnull dereferenceable(1) @.str.51, i32 noundef %99, ptr noundef %98, i32 noundef %81)
  br label %101

101:                                              ; preds = %87, %96, %79
  %indvars.iv.next = add nuw nsw i64 %indvars.iv, 1
  %exitcond.not = icmp eq i64 %indvars.iv.next, 60
  br i1 %exitcond.not, label %.loopexit, label %79, !llvm.loop !45

.loopexit:                                        ; preds = %101, %75, %74
  ret void
}